; Function Attrs: nounwind uwtable
define void @Java_java_io_UnixFileSystem_initIDs(ptr noundef %0, ptr nocapture noundef readnone %1) local_unnamed_addr #0 {
  %3 = load ptr, ptr %0, align 8
  %4 = getelementptr inbounds i8, ptr %3, i64 48
  %5 = load ptr, ptr %4, align 8
  %6 = tail call ptr %5(ptr noundef nonnull %0, ptr noundef nonnull @.str) #7
  %.not = icmp eq ptr %6, null
  br i1 %.not, label %12, label %7

7:                                                ; preds = %2
  %8 = load ptr, ptr %0, align 8
  %9 = getelementptr inbounds i8, ptr %8, i64 752
  %10 = load ptr, ptr %9, align 8
  %11 = tail call ptr %10(ptr noundef nonnull %0, ptr noundef nonnull %6, ptr noundef nonnull @.str.1, ptr noundef nonnull @.str.2) #7
  store ptr %11, ptr @ids.0, align 8
  br label %12

12:                                               ; preds = %2, %7
  ret void
}